; ModuleID = 'source-C-CXX/49/1344.c'
source_filename = "source-C-CXX/49/1344.c"
target datalayout = "e-m:e-p270:32:32-p271:32:32-p272:64:64-i64:64-f80:128-n8:16:32:64-S128"
target triple = "x86_64-pc-linux-gnu"

@.str = private unnamed_addr constant [3 x i8] c"%d\00", align 1
@.str.1 = private unnamed_addr constant [4 x i8] c"%d\0A\00", align 1
@switch.table.main = private unnamed_addr constant [8 x i32] [i32 5, i32 12, i32 7, i32 12, i32 12, i32 10, i32 12, i32 12], align 4

; Function Attrs: nofree nounwind sspstrong uwtable
define dso_local i32 @main() local_unnamed_addr #0 {
  %1 = alloca i32, align 4
  %2 = bitcast i32* %1 to i8*
  call void @llvm.lifetime.start.p0i8(i64 4, i8* nonnull %2) #3
  %3 = call i32 (i8*, ...) @__isoc99_scanf(i8* getelementptr inbounds ([3 x i8], [3 x i8]* @.str, i64 0, i64 0), i32* nonnull %1)
  br label %4

4:                                                ; preds = %0, %40
  %5 = phi i32 [ 1, %0 ], [ %41, %40 ]
  %6 = phi i32 [ 1, %0 ], [ %31, %40 ]
  %7 = phi i32 [ 1, %0 ], [ %30, %40 ]
  switch i32 %6, label %13 [
    i32 31, label %8
    i32 30, label %10
  ]

8:                                                ; preds = %4
  %9 = add nsw i32 %7, 1
  br label %29

10:                                               ; preds = %4
  %11 = add i32 %7, -4
  %12 = icmp ult i32 %11, 8
  br i1 %12, label %20, label %13

13:                                               ; preds = %20, %10, %4
  %14 = icmp eq i32 %6, 28
  %15 = icmp eq i32 %7, 2
  %16 = select i1 %14, i1 %15, i1 false
  %17 = add nsw i32 %6, 1
  %18 = select i1 %16, i32 3, i32 %7
  %19 = select i1 %16, i32 1, i32 %17
  br label %29

20:                                               ; preds = %10
  %21 = trunc i32 %11 to i8
  %22 = lshr i8 -91, %21
  %23 = and i8 %22, 1
  %24 = icmp eq i8 %23, 0
  br i1 %24, label %13, label %25

25:                                               ; preds = %20
  %26 = sext i32 %11 to i64
  %27 = getelementptr inbounds [8 x i32], [8 x i32]* @switch.table.main, i64 0, i64 %26
  %28 = load i32, i32* %27, align 4
  br label %29

29:                                               ; preds = %25, %13, %8
  %30 = phi i32 [ %9, %8 ], [ %18, %13 ], [ %28, %25 ]
  %31 = phi i32 [ 1, %8 ], [ %19, %13 ], [ 1, %25 ]
  %32 = load i32, i32* %1, align 4, !tbaa !5
  %33 = add nsw i32 %32, 1
  %34 = srem i32 %33, 7
  store i32 %34, i32* %1, align 4, !tbaa !5
  %35 = icmp eq i32 %31, 13
  %36 = icmp eq i32 %34, 5
  %37 = select i1 %35, i1 %36, i1 false
  br i1 %37, label %38, label %40

38:                                               ; preds = %29
  %39 = call i32 (i8*, ...) @printf(i8* nonnull dereferenceable(1) getelementptr inbounds ([4 x i8], [4 x i8]* @.str.1, i64 0, i64 0), i32 %30)
  br label %40

40:                                               ; preds = %29, %38
  %41 = add nuw nsw i32 %5, 1
  %42 = icmp eq i32 %41, 365
  br i1 %42, label %43, label %4, !llvm.loop !9

43:                                               ; preds = %40
  call void @llvm.lifetime.end.p0i8(i64 4, i8* nonnull %2) #3
  ret i32 0
}

; Function Attrs: argmemonly mustprogress nofree nosync nounwind willreturn
declare void @llvm.lifetime.start.p0i8(i64 immarg, i8* nocapture) #1

; Function Attrs: nofree nounwind
declare noundef i32 @__isoc99_scanf(i8* nocapture noundef readonly, ...) local_unnamed_addr #2

; Function Attrs: nofree nounwind
declare noundef i32 @printf(i8* nocapture noundef readonly, ...) local_unnamed_addr #2

; Function Attrs: argmemonly mustprogress nofree nosync nounwind willreturn
declare void @llvm.lifetime.end.p0i8(i64 immarg, i8* nocapture) #1


!llvm.module.flags = !{!0, !1, !2, !3}
!llvm.ident = !{!4}

!0 = !{i32 1, !"wchar_size", i32 4}
!1 = !{i32 7, !"PIC Level", i32 2}
!2 = !{i32 7, !"PIE Level", i32 2}
!3 = !{i32 7, !"uwtable", i32 1}
!4 = !{!"clang version 13.0.0"}
!5 = !{!6, !6, i64 0}
!6 = !{!"int", !7, i64 0}
!7 = !{!"omnipotent char", !8, i64 0}
!8 = !{!"Simple C/C++ TBAA"}
!9 = distinct !{!9, !10}
!10 = !{!"llvm.loop.mustprogress"}
